; Function Attrs: mustprogress uwtable
define internal void @_ZL47InitDefaultsscc_info_rect32s_data_5fdef_2eprotov() #3 personality ptr @__gxx_personality_v0 {
entry:
  tail call void @_ZN6google8protobuf8internal13VerifyVersionEiiPKc(i32 noundef 3012004, i32 noundef 3012000, ptr noundef nonnull @.str.4)
  store ptr null, ptr getelementptr inbounds (%"class.mygame::rect32sDefaultTypeInternal", ptr @_ZN6mygame26_rect32s_default_instance_E, i64 0, i32 0, i32 0, i32 1, i64 0), align 8
  store ptr getelementptr inbounds ({ [22 x ptr] }, ptr @_ZTVN6mygame7rect32sE, i64 0, i32 0, i64 2), ptr @_ZN6mygame26_rect32s_default_instance_E, align 8
  tail call void @llvm.memset.p0.i64(ptr noundef nonnull align 8 dereferenceable(28) getelementptr inbounds (%"class.mygame::rect32sDefaultTypeInternal", ptr @_ZN6mygame26_rect32s_default_instance_E, i64 0, i32 0, i32 0, i32 1, i64 8), i8 0, i64 28, i1 false)
  %0 = load atomic i32, ptr @scc_info_rect32s_data_5fdef_2eproto acquire, align 8
  %cmp.not.i.i.i.i = icmp eq i32 %0, 0
  br i1 %cmp.not.i.i.i.i, label %_ZN6mygame7rect32sC2Ev.exit, label %if.then.i.i.i.i

if.then.i.i.i.i:                                  ; preds = %entry
  invoke void @_ZN6google8protobuf8internal11InitSCCImplEPNS1_11SCCInfoBaseE(ptr noundef nonnull @scc_info_rect32s_data_5fdef_2eproto)
          to label %_ZN6mygame7rect32sC2Ev.exit unwind label %lpad2.i.i

lpad2.i.i:                                        ; preds = %if.then.i.i.i.i
  %1 = landingpad { ptr, i32 }
          cleanup
  invoke void @_ZN6google8protobuf8internal20RepeatedPtrFieldBase7DestroyINS0_16RepeatedPtrFieldIN6mygame6rect32EE11TypeHandlerEEEvv(ptr noundef nonnull align 8 dereferenceable(24) getelementptr inbounds (%"class.mygame::rect32sDefaultTypeInternal", ptr @_ZN6mygame26_rect32s_default_instance_E, i64 0, i32 0, i32 0, i32 1, i64 8))
          to label %_ZN6google8protobuf16RepeatedPtrFieldIN6mygame6rect32EED2Ev.exit.i.i unwind label %terminate.lpad.i.i.i

terminate.lpad.i.i.i:                             ; preds = %lpad2.i.i
  %2 = landingpad { ptr, i32 }
          catch ptr null
  %3 = extractvalue { ptr, i32 } %2, 0
  tail call void @__clang_call_terminate(ptr %3) #21
  unreachable

_ZN6google8protobuf16RepeatedPtrFieldIN6mygame6rect32EED2Ev.exit.i.i: ; preds = %lpad2.i.i
  resume { ptr, i32 } %1

_ZN6mygame7rect32sC2Ev.exit:                      ; preds = %entry, %if.then.i.i.i.i
  tail call void @_ZN6google8protobuf8internal13OnShutdownRunEPFvPKvES3_(ptr noundef nonnull @_ZN6google8protobuf8internal14DestroyMessageEPKv, ptr noundef nonnull @_ZN6mygame26_rect32s_default_instance_E)
  ret void
}